; Function Attrs: nounwind uwtable
define void @__redisSetError(ptr noundef initializes((8, 12)) %0, i32 noundef %1, ptr noundef readonly captures(address_is_null) %2) local_unnamed_addr #0 {
  %4 = getelementptr inbounds nuw i8, ptr %0, i64 8
  store i32 %1, ptr %4, align 8, !tbaa !32
  %.not = icmp eq ptr %2, null
  %5 = getelementptr inbounds nuw i8, ptr %0, i64 12
  br i1 %.not, label %10, label %6

6:                                                ; preds = %3
  %7 = tail call i64 @strlen(ptr noundef nonnull dereferenceable(1) %2) #14
  %8 = tail call i64 @llvm.umin.i64(i64 %7, i64 127)
  tail call void @llvm.memcpy.p0.p0.i64(ptr nonnull align 4 %5, ptr nonnull align 1 %2, i64 %8, i1 false)
  %9 = getelementptr inbounds nuw [128 x i8], ptr %5, i64 0, i64 %8
  store i8 0, ptr %9, align 1, !tbaa !22
  br label %14

10:                                               ; preds = %3
  %11 = tail call ptr @__errno_location() #15
  %12 = load i32, ptr %11, align 4, !tbaa !27
  %13 = tail call i32 @__xpg_strerror_r(i32 noundef %12, ptr noundef nonnull %5, i64 noundef 128) #13
  br label %14

14:                                               ; preds = %10, %6
  ret void
}